; Function Attrs: mustprogress nofree norecurse nosync nounwind memory(readwrite, argmem: none, inaccessiblemem: none) uwtable
define void @_ZN11TransTableL12SetConstantsEv(ptr nocapture noundef nonnull readnone align 8 dereferenceable(664216) %0) local_unnamed_addr #5 align 2 {
  %2 = alloca [8192 x i32], align 16
  store i32 15, ptr @_ZL12TTlowestRank, align 16
  store i32 0, ptr %2, align 16
  br label %3

3:                                                ; preds = %1, %3
  %indvars.iv = phi i64 [ 1, %1 ], [ %indvars.iv.next, %3 ]
  %.04445 = phi i32 [ 1, %1 ], [ %spec.select, %3 ]
  %4 = shl i32 %.04445, 1
  %5 = zext i32 %4 to i64
  %.not = icmp ult i64 %indvars.iv, %5
  %spec.select = select i1 %.not, i32 %.04445, i32 %4
  %6 = trunc nuw nsw i64 %indvars.iv to i32
  %7 = xor i32 %spec.select, %6
  %8 = zext i32 %7 to i64
  %9 = getelementptr inbounds [8192 x i32], ptr %2, i64 0, i64 %8
  %10 = load i32, ptr %9, align 4
  %11 = lshr i32 %10, 2
  %12 = or i32 %11, 50331648
  %13 = getelementptr inbounds [8192 x i32], ptr %2, i64 0, i64 %indvars.iv
  store i32 %12, ptr %13, align 4
  %14 = shl i32 %12, 6
  %15 = and i32 %14, -16777216
  %16 = getelementptr inbounds [8192 x [4 x [4 x i32]]], ptr @_ZL9maskBytes, i64 0, i64 %indvars.iv
  store i32 %15, ptr %16, align 16
  %17 = shl i32 %11, 14
  %18 = and i32 %17, -16777216
  %19 = getelementptr inbounds i8, ptr %16, i64 4
  store i32 %18, ptr %19, align 4
  %20 = shl i32 %11, 22
  %21 = and i32 %20, -16777216
  %22 = getelementptr inbounds i8, ptr %16, i64 8
  store i32 %21, ptr %22, align 8
  %23 = shl i32 %11, 30
  %24 = getelementptr inbounds i8, ptr %16, i64 12
  store i32 %23, ptr %24, align 4
  %25 = lshr i32 %12, 2
  %26 = and i32 %25, 16711680
  %27 = getelementptr inbounds i8, ptr %16, i64 16
  store i32 %26, ptr %27, align 16
  %28 = and i32 %14, 16711680
  %29 = getelementptr inbounds i8, ptr %16, i64 20
  store i32 %28, ptr %29, align 4
  %30 = and i32 %17, 16711680
  %31 = getelementptr inbounds i8, ptr %16, i64 24
  store i32 %30, ptr %31, align 8
  %32 = and i32 %20, 12582912
  %33 = getelementptr inbounds i8, ptr %16, i64 28
  store i32 %32, ptr %33, align 4
  %34 = lshr i32 %12, 10
  %35 = and i32 %34, 65280
  %36 = getelementptr inbounds i8, ptr %16, i64 32
  store i32 %35, ptr %36, align 16
  %37 = and i32 %25, 65280
  %38 = getelementptr inbounds i8, ptr %16, i64 36
  store i32 %37, ptr %38, align 4
  %39 = and i32 %14, 65280
  %40 = getelementptr inbounds i8, ptr %16, i64 40
  store i32 %39, ptr %40, align 8
  %41 = and i32 %17, 49152
  %42 = getelementptr inbounds i8, ptr %16, i64 44
  store i32 %41, ptr %42, align 4
  %43 = lshr i32 %12, 18
  %44 = and i32 %43, 255
  %45 = getelementptr inbounds i8, ptr %16, i64 48
  store i32 %44, ptr %45, align 16
  %46 = and i32 %34, 255
  %47 = getelementptr inbounds i8, ptr %16, i64 52
  store i32 %46, ptr %47, align 4
  %48 = and i32 %25, 255
  %49 = getelementptr inbounds i8, ptr %16, i64 56
  store i32 %48, ptr %49, align 8
  %50 = and i32 %14, 192
  %51 = getelementptr inbounds i8, ptr %16, i64 60
  store i32 %50, ptr %51, align 4
  %52 = getelementptr inbounds [8192 x i32], ptr @_ZL12TTlowestRank, i64 0, i64 %8
  %53 = load i32, ptr %52, align 4
  %54 = add nsw i32 %53, -1
  %55 = getelementptr inbounds [8192 x i32], ptr @_ZL12TTlowestRank, i64 0, i64 %indvars.iv
  store i32 %54, ptr %55, align 4
  %indvars.iv.next = add nuw nsw i64 %indvars.iv, 1
  %exitcond.not = icmp eq i64 %indvars.iv.next, 8192
  br i1 %exitcond.not, label %56, label %3, !llvm.loop !6

56:                                               ; preds = %3
  ret void
}